ccopy_reg
_reconstructor
p1
(cpandas.core.frame
DataFrame
p2
c__builtin__
object
p3
NtRp4
(dp5
S'_metadata'
p6
(lp7
sS'_typ'
p8
S'dataframe'
p9
sS'_data'
p10
g1
(cpandas.core.internals
BlockManager
p11
g3
NtRp12
((lp13
cpandas.core.index
_new_Index
p14
(cpandas.core.index
Index
p15
(dp16
S'data'
p17
cnumpy.core.multiarray
_reconstruct
p18
(cnumpy
ndarray
p19
(I0
tS'b'
tRp20
(I1
(I34
tcnumpy
dtype
p21
(S'O8'
I0
I1
tRp22
(I3
S'|'
NNNI-1
I-1
I63
tbI00
(lp23
S'Q1'
p24
aS'Q2'
p25
aS'Q3'
p26
aS'Q4'
p27
aS'Q7'
p28
aS'Q8'
p29
aS'Q9_1'
p30
aS'Q9_2'
p31
aS'Q9_3'
p32
aS'Q9_4'
p33
aS'Q9_5'
p34
aS'Q9_6'
p35
aS'Q9_7'
p36
aS'Q9_8'
p37
aS'Q9_9'
p38
aS'Q9_10'
p39
aS'Q9_11'
p40
aS'Q9_12'
p41
aS'Q10'
p42
aS'Q11_1'
p43
aS'Q11_2'
p44
aS'Q11_3'
p45
aS'Q11_4'
p46
aS'Q12'
p47
aS'Q13_1'
p48
aS'Q13_2'
p49
aS'Q13_3'
p50
aS'Q13_4'
p51
aS'Q13_5'
p52
aS'Q13_6'
p53
aS'Q13_7'
p54
aS'Q13_8'
p55
aS'Q13_9'
p56
aS'Q14'
p57
atbsS'name'
p58
NstRp59
ag14
(cpandas.core.index
Int64Index
p60
(dp61
g17
g18
(g19
(I0
tS'b'
tRp62
(I1
(I189
tg21
(S'i8'
I0
I1
tRp63
(I3
S'<'
NNNI-1
I-1
I0
tbI00
S'\x01\x00\x00\x00\x00\x00\x00\x00\x02\x00\x00\x00\x00\x00\x00\x00\x03\x00\x00\x00\x00\x00\x00\x00\x04\x00\x00\x00\x00\x00\x00\x00\x05\x00\x00\x00\x00\x00\x00\x00\x06\x00\x00\x00\x00\x00\x00\x00\x07\x00\x00\x00\x00\x00\x00\x00\x08\x00\x00\x00\x00\x00\x00\x00\x0b\x00\x00\x00\x00\x00\x00\x00\x0c\x00\x00\x00\x00\x00\x00\x00\r\x00\x00\x00\x00\x00\x00\x00\x0e\x00\x00\x00\x00\x00\x00\x00\x0f\x00\x00\x00\x00\x00\x00\x00\x11\x00\x00\x00\x00\x00\x00\x00\x12\x00\x00\x00\x00\x00\x00\x00\x13\x00\x00\x00\x00\x00\x00\x00\x14\x00\x00\x00\x00\x00\x00\x00\x15\x00\x00\x00\x00\x00\x00\x00\x16\x00\x00\x00\x00\x00\x00\x00\x17\x00\x00\x00\x00\x00\x00\x00\x18\x00\x00\x00\x00\x00\x00\x00\x19\x00\x00\x00\x00\x00\x00\x00\x1a\x00\x00\x00\x00\x00\x00\x00\x1b\x00\x00\x00\x00\x00\x00\x00\x1c\x00\x00\x00\x00\x00\x00\x00\x1d\x00\x00\x00\x00\x00\x00\x00\x1e\x00\x00\x00\x00\x00\x00\x00\x1f\x00\x00\x00\x00\x00\x00\x00 \x00\x00\x00\x00\x00\x00\x00!\x00\x00\x00\x00\x00\x00\x00"\x00\x00\x00\x00\x00\x00\x00#\x00\x00\x00\x00\x00\x00\x00$\x00\x00\x00\x00\x00\x00\x00%\x00\x00\x00\x00\x00\x00\x00&\x00\x00\x00\x00\x00\x00\x00\'\x00\x00\x00\x00\x00\x00\x00(\x00\x00\x00\x00\x00\x00\x00)\x00\x00\x00\x00\x00\x00\x00*\x00\x00\x00\x00\x00\x00\x00,\x00\x00\x00\x00\x00\x00\x00-\x00\x00\x00\x00\x00\x00\x00/\x00\x00\x00\x00\x00\x00\x000\x00\x00\x00\x00\x00\x00\x001\x00\x00\x00\x00\x00\x00\x002\x00\x00\x00\x00\x00\x00\x003\x00\x00\x00\x00\x00\x00\x004\x00\x00\x00\x00\x00\x00\x005\x00\x00\x00\x00\x00\x00\x006\x00\x00\x00\x00\x00\x00\x007\x00\x00\x00\x00\x00\x00\x008\x00\x00\x00\x00\x00\x00\x009\x00\x00\x00\x00\x00\x00\x00:\x00\x00\x00\x00\x00\x00\x00;\x00\x00\x00\x00\x00\x00\x00<\x00\x00\x00\x00\x00\x00\x00=\x00\x00\x00\x00\x00\x00\x00>\x00\x00\x00\x00\x00\x00\x00?\x00\x00\x00\x00\x00\x00\x00@\x00\x00\x00\x00\x00\x00\x00A\x00\x00\x00\x00\x00\x00\x00B\x00\x00\x00\x00\x00\x00\x00C\x00\x00\x00\x00\x00\x00\x00D\x00\x00\x00\x00\x00\x00\x00E\x00\x00\x00\x00\x00\x00\x00F\x00\x00\x00\x00\x00\x00\x00G\x00\x00\x00\x00\x00\x00\x00H\x00\x00\x00\x00\x00\x00\x00I\x00\x00\x00\x00\x00\x00\x00J\x00\x00\x00\x00\x00\x00\x00K\x00\x00\x00\x00\x00\x00\x00L\x00\x00\x00\x00\x00\x00\x00M\x00\x00\x00\x00\x00\x00\x00N\x00\x00\x00\x00\x00\x00\x00O\x00\x00\x00\x00\x00\x00\x00P\x00\x00\x00\x00\x00\x00\x00Q\x00\x00\x00\x00\x00\x00\x00R\x00\x00\x00\x00\x00\x00\x00S\x00\x00\x00\x00\x00\x00\x00T\x00\x00\x00\x00\x00\x00\x00U\x00\x00\x00\x00\x00\x00\x00V\x00\x00\x00\x00\x00\x00\x00W\x00\x00\x00\x00\x00\x00\x00X\x00\x00\x00\x00\x00\x00\x00Y\x00\x00\x00\x00\x00\x00\x00Z\x00\x00\x00\x00\x00\x00\x00[\x00\x00\x00\x00\x00\x00\x00\\\x00\x00\x00\x00\x00\x00\x00]\x00\x00\x00\x00\x00\x00\x00^\x00\x00\x00\x00\x00\x00\x00_\x00\x00\x00\x00\x00\x00\x00`\x00\x00\x00\x00\x00\x00\x00a\x00\x00\x00\x00\x00\x00\x00b\x00\x00\x00\x00\x00\x00\x00c\x00\x00\x00\x00\x00\x00\x00d\x00\x00\x00\x00\x00\x00\x00e\x00\x00\x00\x00\x00\x00\x00f\x00\x00\x00\x00\x00\x00\x00g\x00\x00\x00\x00\x00\x00\x00h\x00\x00\x00\x00\x00\x00\x00i\x00\x00\x00\x00\x00\x00\x00j\x00\x00\x00\x00\x00\x00\x00l\x00\x00\x00\x00\x00\x00\x00m\x00\x00\x00\x00\x00\x00\x00n\x00\x00\x00\x00\x00\x00\x00o\x00\x00\x00\x00\x00\x00\x00p\x00\x00\x00\x00\x00\x00\x00q\x00\x00\x00\x00\x00\x00\x00r\x00\x00\x00\x00\x00\x00\x00s\x00\x00\x00\x00\x00\x00\x00t\x00\x00\x00\x00\x00\x00\x00u\x00\x00\x00\x00\x00\x00\x00v\x00\x00\x00\x00\x00\x00\x00w\x00\x00\x00\x00\x00\x00\x00x\x00\x00\x00\x00\x00\x00\x00y\x00\x00\x00\x00\x00\x00\x00z\x00\x00\x00\x00\x00\x00\x00{\x00\x00\x00\x00\x00\x00\x00|\x00\x00\x00\x00\x00\x00\x00}\x00\x00\x00\x00\x00\x00\x00~\x00\x00\x00\x00\x00\x00\x00\x7f\x00\x00\x00\x00\x00\x00\x00\x80\x00\x00\x00\x00\x00\x00\x00\x81\x00\x00\x00\x00\x00\x00\x00\x82\x00\x00\x00\x00\x00\x00\x00\x83\x00\x00\x00\x00\x00\x00\x00\x84\x00\x00\x00\x00\x00\x00\x00\x85\x00\x00\x00\x00\x00\x00\x00\x86\x00\x00\x00\x00\x00\x00\x00\x87\x00\x00\x00\x00\x00\x00\x00\x88\x00\x00\x00\x00\x00\x00\x00\x89\x00\x00\x00\x00\x00\x00\x00\x8a\x00\x00\x00\x00\x00\x00\x00\x8b\x00\x00\x00\x00\x00\x00\x00\x8c\x00\x00\x00\x00\x00\x00\x00\x8d\x00\x00\x00\x00\x00\x00\x00\x8e\x00\x00\x00\x00\x00\x00\x00\x8f\x00\x00\x00\x00\x00\x00\x00\x90\x00\x00\x00\x00\x00\x00\x00\x91\x00\x00\x00\x00\x00\x00\x00\x92\x00\x00\x00\x00\x00\x00\x00\x93\x00\x00\x00\x00\x00\x00\x00\x94\x00\x00\x00\x00\x00\x00\x00\x95\x00\x00\x00\x00\x00\x00\x00\x96\x00\x00\x00\x00\x00\x00\x00\x97\x00\x00\x00\x00\x00\x00\x00\x98\x00\x00\x00\x00\x00\x00\x00\x99\x00\x00\x00\x00\x00\x00\x00\x9a\x00\x00\x00\x00\x00\x00\x00\x9b\x00\x00\x00\x00\x00\x00\x00\x9c\x00\x00\x00\x00\x00\x00\x00\x9d\x00\x00\x00\x00\x00\x00\x00\x9f\x00\x00\x00\x00\x00\x00\x00\xa0\x00\x00\x00\x00\x00\x00\x00\xa1\x00\x00\x00\x00\x00\x00\x00\xa2\x00\x00\x00\x00\x00\x00\x00\xa3\x00\x00\x00\x00\x00\x00\x00\xa4\x00\x00\x00\x00\x00\x00\x00\xa5\x00\x00\x00\x00\x00\x00\x00\xa6\x00\x00\x00\x00\x00\x00\x00\xa7\x00\x00\x00\x00\x00\x00\x00\xa8\x00\x00\x00\x00\x00\x00\x00\xa9\x00\x00\x00\x00\x00\x00\x00\xaa\x00\x00\x00\x00\x00\x00\x00\xab\x00\x00\x00\x00\x00\x00\x00\xac\x00\x00\x00\x00\x00\x00\x00\xad\x00\x00\x00\x00\x00\x00\x00\xaf\x00\x00\x00\x00\x00\x00\x00\xb0\x00\x00\x00\x00\x00\x00\x00\xb2\x00\x00\x00\x00\x00\x00\x00\xb3\x00\x00\x00\x00\x00\x00\x00\xb4\x00\x00\x00\x00\x00\x00\x00\xb5\x00\x00\x00\x00\x00\x00\x00\xb6\x00\x00\x00\x00\x00\x00\x00\xb7\x00\x00\x00\x00\x00\x00\x00\xb8\x00\x00\x00\x00\x00\x00\x00\xb9\x00\x00\x00\x00\x00\x00\x00\xba\x00\x00\x00\x00\x00\x00\x00\xbb\x00\x00\x00\x00\x00\x00\x00\xbc\x00\x00\x00\x00\x00\x00\x00\xbd\x00\x00\x00\x00\x00\x00\x00\xbe\x00\x00\x00\x00\x00\x00\x00\xc0\x00\x00\x00\x00\x00\x00\x00\xc1\x00\x00\x00\x00\x00\x00\x00\xc2\x00\x00\x00\x00\x00\x00\x00\xc3\x00\x00\x00\x00\x00\x00\x00\xc4\x00\x00\x00\x00\x00\x00\x00\xc5\x00\x00\x00\x00\x00\x00\x00\xc6\x00\x00\x00\x00\x00\x00\x00\xc7\x00\x00\x00\x00\x00\x00\x00'
tbsg58
NstRp64
a(lp65
g18
(g19
(I0
tS'b'
tRp66
(I1
(I34
I189
tg22
I00
(lp67
V2
aV1
aV2
aV2
aV2
aV2
aV1
aV1
aV2
aV1
aV2
aV2
aV2
aV2
aV1
aV1
aV2
aV2
aV1
aV2
aV1
aV2
aV2
aV2
aV1
aV1
aV2
aV2
aV2
aV2
aV2
aV1
aV2
aV2
aV2
aV2
aV2
aV2
aV1
aV2
aV2
aV2
aV2
aV2
aV1
aV1
aV2
aV2
aV2
aV1
aV2
aV2
aV2
aV2
aV1
aV2
aV2
aV2
aV2
aV2
aV2
aV1
aV1
aV1
aV2
aV1
aV1
aV2
aV2
aV2
aV1
aV1
aV1
aV1
aV2
aV1
aV2
aV1
aV2
aV2
aV1
aV1
aV1
aV1
aV2
aV2
aV2
aV1
aV2
aV1
aV2
aV2
aV1
aV2
aV2
aV2
aV2
aV1
aV2
aV2
aV1
aV2
aV2
aV2
aV1
aV2
aV2
aV1
aV2
aV2
aV1
aV1
aV2
aV1
aV1
aV1
aV2
aV2
aV2
aV2
aV1
aV1
aV2
aV2
aV2
aV2
aV1
aV2
aV2
aV1
aV1
aV1
aV1
aV2
aV2
aV2
aV2
aV2
aV1
aV1
aV2
aV2
aV2
aV2
aV1
aV2
aV1
aV1
aV2
aV1
aV2
aV2
aV2
aV2
aV2
aV2
aV2
aV1
aV1
aV2
aV2
aV2
aV1
aV1
aV1
aV2
aV2
aV2
aV1
aV2
aV2
aV2
aV1
aV2
aV2
aV2
aV1
aV2
aV2
aV1
aV1
aV2
aV2
aV2
aV2
aV1
aV2
aV2
aV1
aV69
p68
aV72
p69
aV64
p70
aV58
p71
aV67
p72
ag69
aV73
p73
ag73
aV68
p74
aV65
p75
ag69
aV28
p76
ag73
aV66
p77
aV57
p78
ag73
aV74
p79
aV71
p80
aV54
p81
ag69
aV2
ag68
aV37
p82
aV61
p83
ag74
ag83
aV56
p84
aV60
p85
ag77
aV63
p86
aV49
p87
ag78
aV59
p88
ag80
ag87
aV27
p89
ag87
aV70
p90
aV75
p91
ag80
ag80
aV41
p92
aV47
p93
ag73
ag91
ag70
ag91
ag83
ag79
ag86
ag69
ag85
aV62
p94
ag73
ag70
ag68
aV81
p95
ag72
ag80
ag75
ag90
ag83
ag72
ag69
aV78
p96
ag68
ag73
ag69
ag91
aV80
p97
aV77
p98
ag98
ag69
ag69
ag96
aV76
p99
ag80
ag96
ag98
ag96
ag96
ag98
aV79
p100
ag98
ag90
ag70
ag79
ag94
ag80
ag73
ag69
ag85
aV40
p101
ag69
ag70
ag72
ag72
ag100
ag73
ag78
ag96
aV55
p102
ag100
ag97
aV51
p103
ag70
ag77
ag80
ag102
ag73
ag75
ag75
ag90
ag73
ag77
ag90
ag87
ag73
ag68
ag75
ag83
ag72
ag75
ag93
ag84
ag85
ag75
ag69
ag71
ag77
ag75
ag70
ag86
ag86
ag77
ag90
ag72
ag75
ag74
ag75
ag73
ag73
ag90
ag75
ag86
ag72
ag85
ag72
ag72
ag72
ag72
ag90
ag68
ag74
ag94
ag72
ag91
ag73
ag73
ag70
ag90
ag88
ag99
ag90
ag74
ag68
ag69
ag94
ag91
ag85
ag69
ag77
ag69
ag79
ag74
ag71
ag69
ag74
ag103
ag73
ag69
ag69
ag69
ag80
ag69
ag77
ag69
ag80
ag69
aV78
p104
ag104
aV24
p105
aV167
p106
ag104
ag104
ag104
ag104
aV67
p107
aV40
p108
ag104
aV122
p109
ag106
aV152
p110
aV65
p111
ag106
aV185
p112
aV45
p113
ag111
ag111
aV13
p114
ag111
ag106
ag111
ag111
ag111
ag106
ag106
ag104
ag107
aV84
p115
ag107
aV156
p116
ag106
ag106
ag106
ag106
ag106
ag106
ag111
ag115
ag106
ag106
ag111
aV61
p117
aV142
p118
aV21
p119
ag106
ag111
ag106
ag106
ag106
ag106
ag106
aV80
p120
ag106
ag106
ag104
ag106
ag107
ag104
ag107
ag111
ag107
ag106
ag111
ag110
ag107
ag104
ag106
ag104
ag104
ag104
aV36
p121
ag111
ag104
ag106
ag104
ag104
ag104
aV182
p122
ag104
ag106
ag104
ag104
ag111
ag117
ag107
ag104
ag104
ag104
ag104
ag104
ag104
aV10
p123
ag107
aV42
p124
ag106
ag109
ag106
ag106
ag106
ag106
ag106
ag106
ag111
ag107
ag106
ag106
ag115
ag107
ag107
ag106
aV76
p125
ag107
ag107
ag107
ag110
ag104
ag107
ag107
ag111
ag107
ag107
ag105
ag107
ag107
ag107
ag106
ag111
ag107
ag107
ag107
ag115
ag107
ag107
ag107
ag107
ag112
ag111
ag106
ag110
ag106
ag107
ag107
ag107
ag120
ag107
ag107
ag123
ag107
ag110
ag107
ag107
ag107
ag107
ag110
ag110
ag110
aV7
aV168
p126
ag109
ag110
aV161
p127
ag107
ag107
ag107
ag127
aV171
p128
ag107
ag107
ag106
ag107
aV31
p129
ag107
ag107
ag107
aV37
p130
ag107
ag107
ag107
ag107
ag107
ag123
ag107
ag107
ag107
ag107
ag117
aV5
aV4
aV5
aV5
aV5
aV4
aV4
aV4
aV6
aV5
aV4
aV4
aV4
aV4
aV5
aV4
aV4
aV4
aV6
aV2
aV4
aV5
aV4
aV5
aV5
aV6
aV5
aV4
aV4
aV5
aV6
aV5
aV6
aV4
aV5
aV2
aV4
aV5
aV4
aV5
aV5
aV5
aV3
aV4
aV4
aV5
aV4
aV5
aV4
aV5
aV4
aV5
aV6
aV3
aV6
aV5
aV1
aV5
aV5
aV5
aV5
aV5
aV5
aV4
aV2
aV4
aV4
aV5
aV2
aV1
aV3
aV2
aV4
aV4
aV2
aV2
aV5
aV3
aV2
aV2
aV4
aV3
aV2
aV2
aV4
aV4
aV5
aV6
aV5
aV4
aV4
aV5
aV6
aV5
aV6
aV5
aV6
aV2
aV4
aV5
aV1
aV5
aV2
aV1
aV6
aV5
aV5
aV4
aV5
aV4
aV6
aV3
aV5
aV4
aV5
aV5
aV6
aV5
aV5
aV6
aV5
aV5
aV5
aV6
aV6
aV6
aV5
aV5
aV6
aV5
aV5
aV3
aV5
aV6
aV5
aV5
aV4
aV3
aV5
aV4
aV4
aV4
aV4
aV4
aV5
aV5
aV6
aV5
aV5
aV5
aV5
aV4
aV5
aV3
aV6
aV3
aV2
aV2
aV4
aV6
aV2
aV6
aV2
aV4
aV4
aV5
aV5
aV5
aV2
aV6
aV4
aV5
aV5
aV5
aV5
aV6
aV5
aV4
aV6
aV5
aV5
aV4
aV5
aV4
aV5
aV5
aV5
aV5
aV4
aV1
aV2
aV4
aV2
aV3
aV3
aV1
aV1
aV4
aV1
aV5
aV1
aV3
aV1
aV1
aV1
aV2
aV2
aV1
aV3
aV5
aV3
aV2
aV3
aV2
aV3
aV3
aV2
aV5
aV4
aV3
aV1
aV1
aV4
aV2
aV1
aV3
aV1
aV5
aV5
aV2
aV1
aV2
aV2
aV3
aV5
aV1
aV5
aV1
aV3
aV1
aV5
aV5
aV4
aV2
aV2
aV2
aV5
aV4
aV3
aV1
aV3
aV1
aV3
aV1
aV4
aV2
aV5
aV2
aV1
aV1
aV3
aV2
aV1
aV3
aV3
aV2
aV3
aV2
aV3
aV5
aV2
aV4
aV4
aV4
aV2
aV1
aV2
aV1
aV2
aV3
aV3
aV1
aV2
aV1
aV2
aV3
aV2
aV3
aV2
aV2
aV1
aV4
aV2
aV1
aV1
aV2
aV2
aV3
aV4
aV2
aV2
aV1
aV4
aV1
aV5
aV4
aV1
aV2
aV3
aV1
aV1
aV3
aV1
aV3
aV3
aV1
aV3
aV2
aV3
aV1
aV1
aV3
aV3
aV2
aV2
aV1
aV3
aV3
aV3
aV2
aV1
aV2
aV1
aV3
aV3
aV2
aV2
aV1
aV1
aV3
aV1
aV2
aV2
aV1
aV2
aV5
aV4
aV5
aV4
aV2
aV2
aV5
aV2
aV3
aV1
aV1
aV2
aV2
aV1
aV4
aV2
aV3
aV3
aV3
aV4
aV5
aV2
aV1
aV3
aV2
aV3
aV2
aV4
aV4
aV4
aV5
aV5
aV2
aV5
aV3
aV5
aV3
aV4
aV3
aV1
aV3
aV3
aV5
aV5
aV3
aV4
aV5
aV4
aV3
aV1
aV4
aV5
aV4
aV1
aV3
aV2
aV3
aV4
aV3
aV4
aV4
aV5
aV3
aV2
aV3
aV1
aV5
aV2
aV4
aV4
aV1
aV3
aV5
aV4
aV5
aV2
aV3
aV1
aV4
aV4
aV4
aV3
aV2
aV3
aV1
aV3
aV3
aV2
aV3
aV4
aV5
aV3
aV5
aV3
aV3
aV2
aV2
aV3
aV3
aV1
aV4
aV3
aV2
aV4
aV4
aV3
aV3
aV2
aV5
aV4
aV4
aV4
aV4
aV3
aV3
aV3
aV3
aV3
aV4
aV3
aV5
aV4
aV2
aV4
aV5
aV5
aV4
aV5
aV4
aV4
aV3
aV1
aV4
aV4
aV4
aV3
aV3
aV5
aV5
aV3
aV3
aV4
aV4
aV5
aV4
aV4
aV3
aV3
aV3
aV1
aV1
aV5
aV5
aV5
aV1
aV4
aV2
aV4
aV2
aV3
aV5
aV4
aV5
aV4
aV5
aV3
aV3
aV5
aV2
aV4
aV1
aV4
aV3
aV4
aV1
aV4
aV4
aV4
aV4
aV2
aV3
aV3
aV5
aV3
aV2
aV5
aV2
aV2
aV2
aV5
aV3
aV3
aV3
aV3
aV1
aV1
aV4
aV2
aV4
aV4
aV3
aV3
aV2
aV2
aV4
aV4
aV5
aV3
aV2
aV4
aV4
aV4
aV1
aV3
aV5
aV2
aV3
aV4
aV3
aV1
aV5
aV2
aV1
aV2
aV4
aV3
aV4
aV3
aV2
aV1
aV1
aV5
aV3
aV2
aV2
aV4
aV2
aV4
aV1
aV2
aV5
aV2
aV1
aV3
aV1
aV4
aV3
aV5
aV2
aV2
aV2
aV2
aV1
aV1
aV1
aV2
aV1
aV2
aV2
aV1
aV2
aV3
aV2
aV1
aV1
aV3
aV1
aV2
aV1
aV2
aV1
aV4
aV2
aV1
aV2
aV2
aV3
aV2
aV2
aV2
aV4
aV5
aV1
aV1
aV3
aV2
aV4
aV1
aV1
aV3
aV1
aV2
aV4
aV3
aV1
aV3
aV2
aV3
aV2
aV3
aV4
aV1
aV3
aV2
aV2
aV2
aV2
aV2
aV2
aV2
aV3
aV2
aV2
aV1
aV4
aV2
aV2
aV3
aV3
aV3
aV1
aV2
aV3
aV4
aV1
aV3
aV5
aV2
aV1
aV3
aV1
aV1
aV1
aV2
aV3
aV1
aV3
aV4
aV1
aV1
aV1
aV5
aV5
aV3
aV3
aV2
aV2
aV3
aV2
aV1
aV2
aV4
aV4
aV5
aV3
aV4
aV3
aV2
aV3
aV5
aV4
aV2
aV1
aV1
aV3
aV1
aV2
aV1
aV1
aV1
aV1
aV3
aV1
aV3
aV4
aV2
aV1
aV1
aV5
aV2
aV3
aV2
aV1
aV3
aV1
aV4
aV3
aV2
aV1
aV2
aV1
aV1
aV2
aV2
aV2
aV3
aV1
aV1
aV3
aV4
aV3
aV1
aV1
aV5
aV1
aV1
aV2
aV3
aV1
aV2
aV2
aV1
aV2
aV4
aV1
aV4
aV3
aV2
aV1
aV1
aV5
aV3
aV2
aV2
aV4
aV2
aV3
aV1
aV1
aV3
aV2
aV2
aV3
aV1
aV4
aV2
aV1
aV2
aV2
aV2
aV1
aV1
aV1
aV1
aV2
aV1
aV2
aV2
aV1
aV2
aV1
aV2
aV1
aV1
aV3
aV1
aV2
aV1
aV2
aV1
aV5
aV4
aV1
aV2
aV1
aV3
aV2
aV2
aV2
aV4
aV5
aV1
aV1
aV1
aV2
aV2
aV1
aV1
aV3
aV2
aV1
aV3
aV3
aV1
aV3
aV1
aV3
aV1
aV3
aV4
aV1
aV4
aV2
aV3
aV1
aV2
aV2
aV2
aV1
aV3
aV2
aV2
aV1
aV4
aV2
aV2
aV1
aV3
aV3
aV1
aV2
aV3
aV4
aV1
aV2
aV3
aV2
aV1
aV3
aV1
aV1
aV1
aV2
aV3
aV1
aV3
aV4
aV1
aV1
aV1
aV4
aV1
aV1
aV3
aV3
aV2
aV3
aV1
aV1
aV2
aV4
aV4
aV5
aV3
aV1
aV4
aV2
aV2
aV5
aV1
aV2
aV1
aV1
aV3
aV1
aV1
aV1
aV1
aV1
aV1
aV3
aV1
aV3
aV4
aV2
aV1
aV1
aV5
aV2
aV3
aV2
aV1
aV3
aV1
aV3
aV4
aV2
aV1
aV2
aV1
aV1
aV2
aV2
aV2
aV3
aV5
aV1
aV2
aV3
aV1
aV1
aV1
aV5
aV1
aV1
aV2
aV2
aV1
aV2
aV1
aV5
aV5
aV5
aV5
aV4
aV5
aV2
aV5
aV5
aV5
aV5
aV4
aV5
aV5
aV5
aV5
aV2
aV5
aV5
aV5
aV2
aV5
aV4
aV5
aV4
aV5
aV4
aV3
aV3
aV5
aV5
aV3
aV3
aV5
aV5
aV5
aV5
aV1
aV5
aV5
aV5
aV5
aV5
aV5
aV5
aV5
aV4
aV5
aV5
aV2
aV5
aV4
aV4
aV4
aV5
aV5
aV5
aV5
aV5
aV3
aV5
aV2
aV5
aV5
aV5
aV4
aV3
aV5
aV5
aV5
aV4
aV3
aV4
aV3
aV5
aV5
aV4
aV4
aV3
aV3
aV5
aV3
aV5
aV4
aV4
aV5
aV3
aV5
aV5
aV2
aV5
aV5
aV4
aV3
aV5
aV5
aV5
aV5
aV4
aV5
aV1
aV5
aV5
aV5
aV5
aV5
aV3
aV5
aV4
aV4
aV5
aV4
aV5
aV5
aV3
aV4
aV2
aV3
aV5
aV5
aV5
aV5
aV3
aV2
aV5
aV5
aV2
aV5
aV5
aV5
aV4
aV5
aV3
aV5
aV5
aV3
aV4
aV5
aV5
aV4
aV5
aV4
aV5
aV1
aV5
aV5
aV5
aV3
aV2
aV3
aV5
aV5
aV4
aV3
aV5
aV1
aV5
aV4
aV3
aV3
aV4
aV4
aV5
aV5
aV2
aV5
aV5
aV5
aV5
aV1
aV5
aV5
aV3
aV5
aV1
aV5
aV4
aV5
aV5
aV4
aV4
aV2
aV5
aV4
aV5
aV4
aV3
aV4
aV5
aV1
aV2
aV2
aV3
aV4
aV3
aV2
aV1
aV1
aV5
aV3
aV3
aV2
aV5
aV3
aV5
aV1
aV4
aV4
aV2
aV2
aV4
aV1
aV5
aV4
aV4
aV2
aV1
aV4
aV2
aV5
aV1
aV3
aV5
aV1
aV4
aV1
aV1
aV3
aV4
aV3
aV2
aV3
aV3
aV1
aV3
aV1
aV2
aV5
aV3
aV4
aV1
aV2
aV1
aV3
aV1
aV2
aV2
aV4
aV4
aV2
aV2
aV3
aV3
aV3
aV1
aV1
aV4
aV5
aV2
aV4
aV3
aV2
aV3
aV3
aV4
aV2
aV4
aV5
aV2
aV4
aV3
aV2
aV3
aV3
aV2
aV1
aV3
aV3
aV2
aV3
aV2
aV4
aV3
aV2
aV5
aV4
aV3
aV2
aV4
aV1
aV2
aV1
aV2
aV5
aV4
aV1
aV5
aV1
aV1
aV2
aV2
aV5
aV1
aV3
aV3
aV1
aV1
aV1
aV4
aV5
aV1
aV3
aV2
aV4
aV3
aV3
aV1
aV4
aV5
aV4
aV5
aV3
aV2
aV4
aV1
aV3
aV4
aV4
aV2
aV4
aV2
aV4
aV1
aV3
aV2
aV3
aV2
aV1
aV3
aV4
aV2
aV4
aV4
aV1
aV1
aV5
aV4
aV3
aV4
aV1
aV1
aV1
aV4
aV2
aV5
aV2
aV4
aV4
aV1
aV2
aV2
aV3
aV2
aV3
aV4
aV2
aV3
aV3
aV1
aV4
aV4
aV1
aV1
aV4
aV2
aV1
aV3
aV1
aV1
aV2
aV2
aV3
aV2
aV3
aV2
aV1
aV1
aV5
aV3
aV3
aV1
aV2
aV4
aV3
aV1
aV4
aV4
aV1
aV3
aV4
aV1
aV5
aV3
aV1
aV2
aV2
aV2
aV1
aV2
aV1
aV3
aV3
aV1
aV2
aV1
aV1
aV3
aV1
aV2
aV2
aV3
aV2
aV1
aV2
aV2
aV2
aV2
aV5
aV4
aV1
aV2
aV1
aV2
aV2
aV2
aV2
aV4
aV5
aV1
aV2
aV1
aV3
aV4
aV1
aV1
aV3
aV3
aV2
aV4
aV3
aV1
aV3
aV2
aV4
aV2
aV3
aV1
aV1
aV4
aV3
aV3
aV1
aV1
aV2
aV1
aV1
aV2
aV2
aV2
aV2
aV4
aV2
aV2
aV1
aV4
aV2
aV1
aV3
aV3
aV2
aV1
aV3
aV3
aV2
aV1
aV2
aV1
aV1
aV2
aV2
aV4
aV2
aV3
aV4
aV1
aV1
aV2
aV4
aV3
aV1
aV3
aV2
aV3
aV3
aV3
aV2
aV4
aV4
aV4
aV4
aV3
aV4
aV4
aV1
aV2
aV4
aV3
aV1
aV1
aV1
aV2
aV1
aV1
aV1
aV3
aV2
aV1
aV3
aV2
aV4
aV4
aV3
aV1
aV1
aV4
aV1
aV3
aV2
aV5
aV1
aV1
aV4
aV2
aV3
aV2
aV3
aV1
aV1
aV2
aV2
aV2
aV3
aV3
aV1
aV1
aV3
aV1
aV3
aV1
aV3
aV1
aV2
aV2
aV2
aV1
aV3
aV1
aV1
aV2
aV1
aV2
aV3
aV3
aV2
aV1
aV1
aV2
aV3
aV2
aV2
aV5
aV2
aV2
aV1
aV2
aV4
aV1
aV3
aV3
aV1
aV2
aV3
aV1
aV2
aV1
aV2
aV1
aV1
aV4
aV2
aV1
aV1
aV2
aV1
aV1
aV4
aV1
aV2
aV1
aV2
aV2
aV1
aV2
aV1
aV2
aV2
aV2
aV2
aV1
aV1
aV1
aV1
aV1
aV2
aV3
aV2
aV5
aV3
aV3
aV1
aV5
aV2
aV5
aV1
aV5
aV1
aV2
aV4
aV3
aV1
aV3
aV2
aV5
aV1
aV3
aV2
aV1
aV3
aV2
aV1
aV2
aV3
aV1
aV1
aV3
aV2
aV2
aV3
aV2
aV4
aV3
aV1
aV1
aV2
aV2
aV1
aV2
aV3
aV1
aV1
aV2
aV3
aV1
aV1
aV1
aV1
aV1
aV2
aV4
aV1
aV1
aV3
aV2
aV1
aV1
aV1
aV3
aV1
aV1
aV3
aV2
aV2
aV3
aV3
aV1
aV2
aV4
aV4
aV5
aV3
aV3
aV4
aV1
aV4
aV5
aV1
aV1
aV3
aV1
aV2
aV2
aV1
aV1
aV1
aV1
aV1
aV3
aV1
aV5
aV4
aV1
aV1
aV1
aV5
aV3
aV3
aV1
aV3
aV1
aV5
aV2
aV5
aV5
aV1
aV2
aV1
aV1
aV1
aV1
aV3
aV2
aV2
aV1
aV1
aV3
aV1
aV1
aV5
aV3
aV1
aV1
aV2
aV2
aV1
aV2
aV1
aV5
aV5
aV5
aV5
aV4
aV5
aV2
aV5
aV1
aV2
aV3
aV3
aV5
aV5
aV5
aV2
aV2
aV5
aV5
aV3
aV3
aV5
aV1
aV5
aV5
aV5
aV5
aV4
aV2
aV2
aV5
aV4
aV3
aV5
aV5
aV5
aV5
aV1
aV5
aV5
aV3
aV4
aV4
aV5
aV1
aV5
aV5
aV5
aV5
aV5
aV5
aV4
aV4
aV5
aV3
aV4
aV5
aV5
aV5
aV2
aV5
aV3
aV5
aV3
aV5
aV5
aV1
aV5
aV5
aV5
aV3
aV3
aV1
aV3
aV5
aV4
aV5
aV3
aV1
aV2
aV4
aV2
aV5
aV4
aV5
aV5
aV5
aV5
aV5
aV2
aV5
aV5
aV3
aV4
aV5
aV4
aV5
aV5
aV4
aV5
aV1
aV5
aV5
aV5
aV5
aV5
aV2
aV5
aV5
aV4
aV4
aV3
aV5
aV4
aV3
aV2
aV1
aV3
aV2
aV5
aV5
aV5
aV3
aV3
aV5
aV3
aV1
aV4
aV5
aV5
aV4
aV5
aV3
aV5
aV3
aV3
aV4
aV5
aV4
aV4
aV5
aV5
aV5
aV1
aV2
aV5
aV5
aV1
aV3
aV3
aV5
aV5
aV4
aV5
aV5
aV1
aV5
aV4
aV3
aV1
aV3
aV5
aV2
aV5
aV5
aV4
aV4
aV5
aV3
aV1
aV4
aV4
aV4
aV5
aV1
aV5
aV5
aV5
aV3
aV2
aV2
aV4
aV3
aV5
aV2
aV2
aV1
aV5
aV5
aV5
aV5
aV5
aV5
aV4
aV5
aV2
aV5
aV1
aV5
aV3
aV3
aV5
aV5
aV5
aV5
aV2
aV5
aV5
aV5
aV3
aV4
aV4
aV5
aV5
aV5
aV5
aV5
aV4
aV2
aV5
aV4
aV4
aV5
aV5
aV5
aV5
aV1
aV5
aV5
aV3
aV4
aV4
aV5
aV1
aV5
aV5
aV5
aV5
aV4
aV5
aV4
aV5
aV5
aV5
aV5
aV4
aV5
aV5
aV2
aV5
aV4
aV5
aV5
aV5
aV5
aV1
aV5
aV5
aV5
aV4
aV3
aV3
aV3
aV5
aV5
aV5
aV4
aV1
aV2
aV2
aV4
aV5
aV4
aV5
aV5
aV5
aV5
aV5
aV2
aV5
aV5
aV3
aV4
aV5
aV4
aV5
aV3
aV4
aV5
aV1
aV5
aV5
aV5
aV5
aV5
aV2
aV5
aV5
aV4
aV5
aV4
aV5
aV5
aV3
aV3
aV1
aV3
aV5
aV5
aV5
aV4
aV2
aV3
aV5
aV5
aV4
aV4
aV5
aV5
aV4
aV5
aV3
aV5
aV4
aV3
aV4
aV5
aV5
aV5
aV5
aV5
aV5
aV1
aV2
aV5
aV5
aV2
aV3
aV3
aV5
aV4
aV4
aV5
aV5
aV1
aV5
aV3
aV3
aV1
aV2
aV5
aV5
aV4
aV4
aV5
aV5
aV5
aV5
aV1
aV5
aV4
aV4
aV5
aV1
aV5
aV5
aV5
aV5
aV5
aV4
aV1
aV3
aV5
aV5
aV4
aV5
aV5
aV5
aV1
aV2
aV1
aV2
aV2
aV3
aV2
aV3
aV1
aV3
aV3
aV2
aV1
aV4
aV2
aV2
aV1
aV2
aV5
aV2
aV3
aV3
aV1
aV4
aV2
aV1
aV1
aV2
aV4
aV1
aV2
aV1
aV2
aV3
aV1
aV3
aV2
aV1
aV3
aV1
aV2
aV2
aV1
aV2
aV1
aV2
aV1
aV2
aV2
aV2
aV3
aV1
aV1
aV1
aV1
aV2
aV2
aV2
aV3
aV5
aV1
aV2
aV1
aV3
aV3
aV1
aV1
aV4
aV1
aV2
aV3
aV2
aV1
aV3
aV2
aV4
aV1
aV2
aV1
aV1
aV3
aV2
aV3
aV3
aV3
aV2
aV1
aV1
aV3
aV2
aV2
aV3
aV3
aV2
aV2
aV2
aV3
aV2
aV1
aV3
aV3
aV3
aV1
aV4
aV3
aV1
aV1
aV1
aV1
aV2
aV2
aV2
aV2
aV2
aV3
aV2
aV2
aV1
aV3
aV3
aV5
aV1
aV2
aV3
aV3
aV3
aV4
aV1
aV2
aV4
aV4
aV5
aV3
aV3
aV4
aV1
aV3
aV5
aV2
aV3
aV1
aV2
aV2
aV2
aV2
aV1
aV3
aV1
aV1
aV3
aV1
aV5
aV4
aV4
aV1
aV1
aV5
aV2
aV3
aV1
aV3
aV1
aV1
aV2
aV4
aV3
aV2
aV2
aV1
aV1
aV2
aV1
aV1
aV2
aV3
aV1
aV1
aV3
aV1
aV1
aV4
aV1
aV1
aV1
aV2
aV2
aV1
aV3
aV1
aV1
aV2
aV1
aV1
aV2
aV3
aV2
aV3
aV1
aV3
aV3
aV2
aV1
aV4
aV2
aV2
aV1
aV2
aV5
aV2
aV3
aV3
aV1
aV4
aV2
aV4
aV1
aV1
aV4
aV1
aV1
aV1
aV2
aV4
aV1
aV2
aV2
aV1
aV3
aV1
aV2
aV2
aV1
aV2
aV1
aV2
aV2
aV1
aV1
aV2
aV3
aV1
aV1
aV1
aV1
aV2
aV2
aV2
aV3
aV5
aV1
aV2
aV1
aV3
aV2
aV2
aV1
aV2
aV1
aV2
aV3
aV3
aV1
aV3
aV1
aV3
aV3
aV2
aV1
aV1
aV3
aV1
aV2
aV2
aV1
aV2
aV1
aV1
aV2
aV2
aV2
aV3
aV3
aV2
aV2
aV1
aV1
aV2
aV1
aV3
aV2
aV2
aV3
aV4
aV3
aV1
aV1
aV1
aV1
aV2
aV1
aV2
aV2
aV2
aV3
aV3
aV1
aV1
aV1
aV2
aV5
aV1
aV1
aV2
aV4
aV3
aV3
aV1
aV2
aV4
aV4
aV5
aV3
aV4
aV4
aV1
aV3
aV5
aV2
aV2
aV1
aV2
aV2
aV2
aV2
aV1
aV3
aV1
aV1
aV3
aV1
aV1
aV4
aV2
aV1
aV1
aV4
aV2
aV3
aV1
aV1
aV1
aV1
aV3
aV4
aV3
aV1
aV2
aV1
aV1
aV2
aV1
aV1
aV2
aV3
aV1
aV1
aV3
aV1
aV1
aV1
aV4
aV1
aV1
aV1
aV2
aV1
aV2
aV1
aV1
aV2
aV1
aV1
aV2
aV3
aV2
aV3
aV1
aV3
aV3
aV2
aV1
aV4
aV2
aV2
aV1
aV2
aV5
aV2
aV3
aV3
aV1
aV4
aV1
aV2
aV1
aV1
aV3
aV1
aV1
aV1
aV2
aV4
aV1
aV2
aV2
aV1
aV3
aV1
aV2
aV2
aV1
aV3
aV1
aV2
aV2
aV1
aV1
aV1
aV4
aV1
aV1
aV1
aV1
aV1
aV2
aV2
aV2
aV5
aV1
aV2
aV1
aV3
aV2
aV1
aV1
aV2
aV1
aV2
aV3
aV3
aV1
aV3
aV1
aV3
aV3
aV3
aV1
aV1
aV2
aV2
aV1
aV1
aV1
aV4
aV1
aV1
aV2
aV2
aV2
aV3
aV4
aV2
aV1
aV3
aV1
aV2
aV1
aV3
aV2
aV2
aV3
aV4
aV3
aV1
aV1
aV1
aV1
aV2
aV1
aV2
aV1
aV2
aV3
aV3
aV1
aV1
aV3
aV2
aV5
aV1
aV1
aV2
aV4
aV3
aV2
aV1
aV3
aV4
aV4
aV5
aV3
aV4
aV4
aV1
aV3
aV5
aV2
aV2
aV1
aV2
aV2
aV2
aV2
aV1
aV2
aV1
aV1
aV3
aV1
aV1
aV4
aV2
aV1
aV1
aV4
aV2
aV3
aV1
aV1
aV1
aV1
aV1
aV2
aV2
aV2
aV2
aV1
aV1
aV2
aV1
aV1
aV2
aV2
aV1
aV1
aV3
aV1
aV1
aV1
aV4
aV1
aV1
aV1
aV3
aV1
aV2
aV1
aV4
aV5
aV5
aV3
aV5
aV5
aV2
aV5
aV3
aV3
aV4
aV2
aV3
aV5
aV4
aV2
aV2
aV4
aV5
aV4
aV1
aV1
aV3
aV5
aV2
aV3
aV4
aV4
aV2
aV2
aV4
aV1
aV5
aV5
aV5
aV4
aV5
aV1
aV4
aV2
aV4
aV5
aV4
aV3
aV5
aV5
aV1
aV3
aV4
aV2
aV4
aV1
aV2
aV4
aV2
aV3
aV4
aV5
aV4
aV3
aV5
aV2
aV3
aV5
aV4
aV4
aV4
aV2
aV5
aV3
aV4
aV4
aV4
aV3
aV5
aV5
aV4
aV3
aV3
aV2
aV4
aV4
aV3
aV5
aV4
aV3
aV4
aV5
aV5
aV2
aV5
aV5
aV4
aV4
aV2
aV4
aV3
aV5
aV4
aV4
aV1
aV4
aV3
aV4
aV5
aV5
aV1
aV4
aV4
aV2
aV2
aV3
aV3
aV5
aV3
aV2
aV1
aV1
aV5
aV4
aV5
aV5
aV1
aV4
aV4
aV4
aV4
aV3
aV5
aV5
aV4
aV5
aV3
aV5
aV3
aV1
aV4
aV5
aV3
aV4
aV3
aV4
aV2
aV1
aV3
aV4
aV4
aV2
aV1
aV3
aV4
aV4
aV4
aV4
aV5
aV1
aV4
aV4
aV3
aV4
aV1
aV1
aV2
aV4
aV5
aV5
aV2
aV4
aV4
aV2
aV2
aV4
aV4
aV4
aV3
aV3
aV4
aV5
aV5
aV1
aV5
aV4
aV3
aV3
aV5
aV4
aV3
aV4
aV5
aV5
aV5
aV5
aV3
aV5
aV4
aV1
aV5
aV3
aV5
aV5
aV4
aV4
aV3
aV5
aV3
aV1
aV2
aV4
aV4
aV2
aV3
aV2
aV3
aV4
aV4
aV4
aV4
aV4
aV4
aV4
aV3
aV1
aV5
aV3
aV3
aV5
aV1
aV4
aV4
aV4
aV5
aV3
aV3
aV1
aV3
aV4
aV4
aV4
aV4
aV4
aV2
aV3
aV2
aV3
aV4
aV2
aV5
aV4
aV4
aV5
aV3
aV3
aV4
aV4
aV4
aV5
aV4
aV3
aV3
aV4
aV4
aV4
aV3
aV4
aV5
aV4
aV3
aV4
aV3
aV4
aV3
aV3
aV3
aV3
aV4
aV5
aV4
aV5
aV2
aV4
aV5
aV5
aV4
aV5
aV4
aV4
aV3
aV3
aV4
aV4
aV4
aV3
aV4
aV5
aV5
aV2
aV3
aV5
aV4
aV5
aV5
aV4
aV4
aV3
aV4
aV2
aV1
aV5
aV5
aV5
aV4
aV4
aV4
aV5
aV4
aV3
aV5
aV4
aV5
aV5
aV5
aV3
aV3
aV5
aV2
aV3
aV1
aV4
aV4
aV4
aV4
aV4
aV3
aV4
aV4
aV5
aV3
aV3
aV5
aV4
aV2
aV4
aV2
aV4
aV4
aV3
aV3
aV3
aV2
aV1
aV4
aV1
aV4
aV3
aV4
aV5
aV3
aV3
aV1
aV4
aV3
aV3
aV5
aV2
aV3
aV4
aV4
aV5
aV1
aV5
aV1
aV4
aV3
aV3
aV3
aV3
aV5
aV5
aV5
aV4
aV1
aV5
aV5
aV2
aV3
aV5
aV5
aV5
aV5
aV5
aV5
aV4
aV4
aV2
aV1
aV5
aV5
aV5
aV2
aV4
aV5
aV4
aV3
aV5
aV5
aV5
aV2
aV5
aV2
aV2
aV4
aV5
aV5
aV5
aV3
aV2
aV5
aV5
aV5
aV5
aV3
aV5
aV4
aV5
aV4
aV4
aV5
aV3
aV5
aV5
aV4
aV4
aV5
aV4
aV5
aV5
aV4
aV3
aV5
aV5
aV5
aV4
aV5
aV3
aV3
aV5
aV1
aV5
aV5
aV4
aV5
aV4
aV2
aV3
aV4
aV4
aV1
aV2
aV2
aV3
aV5
aV4
aV5
aV4
aV5
aV5
aV5
aV2
aV2
aV5
aV5
aV5
aV5
aV5
aV2
aV5
aV5
aV5
aV1
aV5
aV5
aV2
aV1
aV5
aV5
aV5
aV5
aV5
aV1
aV4
aV5
aV4
aV3
aV4
aV2
aV3
aV5
aV5
aV5
aV5
aV3
aV3
aV5
aV3
aV4
aV5
aV5
aV5
aV5
aV5
aV2
aV5
aV4
aV2
aV4
aV1
aV4
aV5
aV5
aV4
aV5
aV1
aV5
aV5
aV5
aV3
aV3
aV5
aV5
aV3
aV4
aV1
aV5
aV1
aV2
aV4
aV3
aV5
aV1
aV2
aV1
aV5
aV2
aV5
aV3
aV5
aV1
aV2
aV1
aV4
aV3
aV5
aV2
aV4
aV5
aV5
aV5
aV2
aV4
aV3
aV3
aV5
aV4
aV1
aV3
aV2
aV3
aV4
aV5
aV4
aV3
aV5
aV2
aV2
aV5
aV3
aV5
aV5
aV4
aV2
aV5
aV3
aV5
aV3
aV4
aV4
aV2
aV1
aV2
aV5
aV4
aV2
aV4
aV2
aV4
aV2
aV3
aV3
aV1
aV2
aV2
aV3
aV2
aV4
aV1
aV3
aV2
aV2
aV5
aV3
aV5
aV4
aV5
aV3
aV4
aV3
aV2
aV2
aV5
aV2
aV3
aV3
aV2
aV3
aV5
aV2
aV3
aV3
aV3
aV3
aV4
aV3
aV4
aV5
aV1
aV1
aV3
aV3
aV5
aV4
aV4
aV1
aV3
aV4
aV3
aV1
aV2
aV4
aV3
aV1
aV3
aV4
aV4
aV4
aV4
aV5
aV4
aV2
aV4
aV5
aV2
aV1
aV5
aV3
aV3
aV2
aV3
aV3
aV4
aV4
aV3
aV2
aV5
aV2
aV1
aV4
aV4
aV1
aV4
aV4
aV4
aV3
aV4
aV2
aV3
aV3
aV3
aV3
aV3
aV3
aV4
aV5
aV3
aV2
aV4
aV4
aV4
aV5
aV5
aV2
aV3
aV3
aV2
aV4
aV1
aV4
aV3
aV4
aV4
aV2
aV1
aV4
aV4
aV5
aV2
aV4
aV5
aV3
aV3
aV4
aV1
aV5
aV1
aV2
aV4
aV3
aV4
aV1
aV2
aV1
aV4
aV2
aV2
aV3
aV5
aV1
aV1
aV4
aV4
aV2
aV3
aV2
aV3
aV4
aV5
aV3
aV2
aV4
aV3
aV2
aV3
aV4
aV2
aV3
aV2
aV3
aV3
aV4
aV4
aV2
aV4
aV3
aV3
aV3
aV1
aV4
aV5
aV4
aV2
aV4
aV2
aV4
aV1
aV3
aV4
aV2
aV2
aV3
aV4
aV4
aV2
aV2
aV2
aV3
aV2
aV2
aV3
aV2
aV3
aV2
aV2
aV2
aV4
aV1
aV2
aV2
aV2
aV5
aV2
aV4
aV3
aV5
aV2
aV3
aV3
aV2
aV2
aV5
aV2
aV1
aV2
aV2
aV4
aV5
aV2
aV4
aV4
aV2
aV3
aV4
aV4
aV4
aV2
aV1
aV1
aV2
aV5
aV5
aV5
aV4
aV3
aV3
aV4
aV2
aV1
aV1
aV4
aV2
aV2
aV4
aV4
aV3
aV4
aV4
aV2
aV3
aV2
aV3
aV5
aV2
aV1
aV4
aV4
aV2
aV2
aV3
aV3
aV3
aV4
aV4
aV2
aV5
aV1
aV2
aV3
aV3
aV1
aV4
aV1
aV2
aV3
aV3
aV1
aV3
aV2
aV3
aV5
aV3
aV3
aV4
aV4
aV3
aV2
aV3
aV4
aV4
aV5
aV5
aV2
aV3
aV4
aV2
aV2
aV5
aV4
aV2
aV3
aV4
aV3
aV2
aV4
aV2
aV5
aV2
aV3
aV5
aV2
aV3
aV4
aV1
aV2
aV2
aV5
aV3
aV3
aV3
aV1
aV2
aV1
aV4
aV3
aV5
aV2
aV3
aV1
aV1
aV4
aV2
aV2
aV4
aV3
aV2
aV3
aV5
aV2
aV1
aV3
aV5
aV2
aV1
aV2
aV2
aV3
aV4
aV3
aV5
aV5
aV1
aV4
aV5
aV4
aV2
aV5
aV3
aV5
aV5
aV5
aV4
aV5
aV3
aV5
aV2
aV4
aV5
aV5
aV2
aV3
aV5
aV4
aV5
aV4
aV4
aV5
aV2
aV4
aV2
aV2
aV4
aV5
aV4
aV4
aV5
aV1
aV4
aV3
aV2
aV5
aV2
aV3
aV3
aV5
aV4
aV5
aV4
aV4
aV3
aV5
aV5
aV3
aV5
aV3
aV5
aV3
aV4
aV3
aV5
aV4
aV4
aV4
aV5
aV4
aV2
aV5
aV5
aV5
aV3
aV5
aV5
aV4
aV4
aV3
aV4
aV3
aV1
aV1
aV5
aV3
aV4
aV4
aV4
aV4
aV2
aV5
aV3
aV3
aV1
aV5
aV5
aV4
aV5
aV5
aV2
aV5
aV3
aV4
aV1
aV5
aV5
aV3
aV1
aV5
aV2
aV4
aV5
aV4
aV1
aV4
aV3
aV4
aV3
aV4
aV3
aV3
aV5
aV4
aV5
aV5
aV3
aV2
aV5
aV3
aV5
aV5
aV4
aV5
aV5
aV5
aV2
aV3
aV4
aV2
aV4
aV1
aV4
aV5
aV2
aV4
aV3
aV1
aV5
aV5
aV5
aV3
aV4
aV5
aV5
aV3
aV4
aV1
aV5
aV1
aV3
aV5
aV3
aV4
aV1
aV2
aV1
aV4
aV3
aV5
aV2
aV2
aV1
aV4
aV2
aV4
aV4
aV5
aV1
aV5
aV4
aV5
aV5
aV3
aV2
aV2
aV4
aV4
aV4
aV1
aV3
aV2
aV3
aV5
aV4
aV5
aV5
aV5
aV4
aV1
aV3
aV4
aV3
aV5
aV4
aV4
aV3
aV5
aV4
aV2
aV5
aV4
aV5
aV3
aV5
aV5
aV3
aV4
aV4
aV4
aV4
aV3
aV4
aV5
aV4
aV3
aV5
aV4
aV4
aV5
aV1
aV4
aV5
aV4
aV5
aV4
aV5
aV2
aV5
aV5
aV3
aV4
aV5
aV4
aV4
aV2
aV3
aV5
aV4
aV2
aV5
aV4
aV4
aV5
aV4
aV3
aV3
aV5
aV4
aV5
aV4
aV5
aV4
aV5
aV4
aV5
aV3
aV4
aV5
aV1
aV3
aV5
aV3
aV4
aV4
aV4
aV3
aV4
aV5
aV4
aV3
aV4
aV2
aV4
aV5
aV5
aV4
aV5
aV5
aV4
aV3
aV5
aV4
aV4
aV4
aV2
aV4
aV2
aV5
aV3
aV5
aV5
aV4
aV5
aV4
aV5
aV5
aV3
aV4
aV3
aV1
aV5
aV5
aV5
aV4
aV4
aV4
aV5
aV4
aV4
aV5
aV3
aV5
aV4
aV5
aV5
aV5
aV5
aV3
aV3
aV5
aV3
aV4
aV5
aV5
aV5
aV4
aV4
aV4
aV5
aV3
aV4
aV5
aV5
aV2
aV3
aV2
aV5
aV4
aV4
aV3
aV3
aV4
aV1
aV3
aV1
aV4
aV2
aV5
aV4
aV4
aV1
aV3
aV4
aV5
aV4
aV5
aV5
aV4
aV5
aV5
aV5
aV3
aV5
aV5
aV4
aV4
aV5
aV4
aV2
aV5
aV3
aV2
aV1
aV5
aV3
aV2
aV4
aV1
aV1
aV1
aV2
aV5
aV3
aV2
aV3
aV3
aV3
aV1
aV2
aV4
aV4
aV2
aV3
aV4
aV5
aV2
aV2
aV4
aV2
aV3
aV2
aV3
aV2
aV3
aV2
aV1
aV3
aV4
aV1
aV2
aV1
aV3
aV4
aV4
aV3
aV3
aV3
aV2
aV2
aV3
aV3
aV3
aV1
aV1
aV2
aV1
aV3
aV2
aV4
aV1
aV4
aV5
aV2
aV3
aV4
aV3
aV5
aV1
aV4
aV5
aV2
aV1
aV3
aV4
aV3
aV2
aV3
aV4
aV4
aV1
aV2
aV5
aV3
aV2
aV4
aV5
aV3
aV2
aV4
aV5
aV2
aV4
aV3
aV4
aV2
aV5
aV3
aV4
aV3
aV1
aV3
aV3
aV3
aV2
aV3
aV4
aV3
aV1
aV3
aV3
aV3
aV2
aV3
aV1
aV2
aV3
aV3
aV1
aV5
aV3
aV3
aV3
aV3
aV3
aV4
aV3
aV4
aV1
aV1
aV3
aV4
aV4
aV5
aV3
aV3
aV5
aV2
aV3
aV4
aV3
aV3
aV3
aV2
aV3
aV2
aV2
aV2
aV4
aV3
aV1
aV5
aV2
aV4
aV4
aV2
aV2
aV1
aV5
aV3
aV3
aV2
aV1
aV1
aV1
aV3
aV3
aV5
aV1
aV2
aV1
aV1
aV4
aV1
aV4
aV5
aV3
aV2
aV3
aV4
aV3
aV1
aV5
aV5
aV1
aV1
aV2
aV2
aV4
aV3
aV1
aV2
aV1
aV1
aV5
aV5
aV2
aV2
aV1
aV3
aV4
aV5
aV4
aV4
aV5
aV5
aV4
aV1
aV4
aV5
aV4
aV2
aV3
aV5
aV5
aV5
aV5
aV4
aV4
aV5
aV3
aV1
aV1
aV2
aV4
aV2
aV4
aV5
aV1
aV3
aV5
aV4
aV4
aV3
aV4
aV3
aV5
aV5
aV5
aV4
aV3
aV3
aV1
aV4
aV5
aV4
aV3
aV3
aV4
aV3
aV3
aV5
aV5
aV5
aV4
aV5
aV3
aV3
aV1
aV3
aV4
aV1
aV3
aV3
aV3
aV3
aV3
aV4
aV3
aV1
aV1
aV5
aV5
aV3
aV4
aV3
aV5
aV1
aV4
aV5
aV2
aV2
aV5
aV3
aV4
aV5
aV5
aV3
aV4
aV5
aV4
aV3
aV3
aV4
aV4
aV4
aV3
aV3
aV4
aV4
aV3
aV1
aV5
aV2
aV3
aV3
aV5
aV1
aV4
aV3
aV5
aV3
aV3
aV3
aV3
aV4
aV2
aV1
aV4
aV3
aV5
aV4
aV5
aV3
aV5
aV5
aV2
aV2
aV5
aV1
aV3
aV2
aV3
aV3
aV1
aV3
aV3
aV1
aV3
aV1
aV5
aV3
aV4
aV4
aV2
aV5
aV1
aV3
aV5
aV3
aV4
aV1
aV1
aV1
aV5
aV2
aV4
aV3
aV3
aV3
aV1
aV2
aV5
aV4
aV5
aV3
aV4
aV5
aV4
aV4
aV1
aV5
aV4
aV3
aV4
aV4
aV5
aV4
aV3
aV1
aV2
aV1
aV3
aV5
aV2
aV3
aV2
aV1
aV3
aV3
aV5
aV3
aV2
aV5
aV2
aV4
aV1
aV3
aV5
aV4
aV3
aV4
aV5
aV5
aV3
aV2
aV4
aV2
aV4
aV2
aV2
aV1
aV3
aV4
aV1
aV4
aV4
aV1
aV3
aV1
aV4
aV4
aV3
aV4
aV3
aV5
aV4
aV3
aV4
aV3
aV2
aV1
aV2
aV3
aV1
aV3
aV3
aV3
aV3
aV4
aV5
aV3
aV3
aV3
aV4
aV4
aV1
aV1
aV3
aV4
aV1
aV3
aV3
aV3
aV2
aV3
aV4
aV3
aV1
aV2
aV4
aV4
aV3
aV4
aV3
aV5
aV2
aV2
aV5
aV2
aV3
aV3
aV3
aV3
aV1
aV3
aV4
aV2
aV1
aV4
aV3
aV3
aV4
aV3
aV4
aV3
aV1
aV2
aV3
aV4
aV1
aV4
aV2
aV2
aV3
aV4
aV1
aV5
aV5
aV3
aV3
aV3
aV3
aV3
aV3
aV4
aV2
aV3
aV3
aV5
aV4
aV5
aV3
aV3
aV3
aV2
aV2
aV5
aV4
aV3
aV2
aV3
aV2
aV2
aV3
aV3
aV3
aV3
aV1
aV5
aV3
aV2
aV4
aV2
aV3
aV1
aV3
aV4
aV3
aV2
aV1
aV1
aV1
aV4
aV1
aV5
aV1
aV3
aV1
aV1
aV2
aV1
aV2
aV3
aV3
aV3
aV2
aV4
aV3
aV1
aV5
aV4
aV2
aV1
aV2
aV3
aV4
aV3
aV1
aV5
aV1
aV1
aV5
aV5
aV2
aV2
aV1
aV4
aV5
aV5
aV5
aV3
aV3
aV4
aV4
aV1
aV4
aV5
aV5
aV3
aV2
aV5
aV5
aV5
aV4
aV4
aV5
aV5
aV3
aV1
aV1
aV5
aV5
aV5
aV5
aV4
aV5
aV4
aV5
aV3
aV5
aV5
aV4
aV5
aV5
aV4
aV2
aV5
aV3
aV5
aV1
aV5
aV5
aV4
aV4
aV5
aV5
aV4
aV4
aV5
aV4
aV4
aV4
aV4
aV2
aV5
aV4
aV1
aV5
aV5
aV4
aV5
aV3
aV3
aV4
aV4
aV4
aV1
aV1
aV2
aV5
aV5
aV4
aV5
aV5
aV2
aV4
aV5
aV2
aV4
aV5
aV5
aV5
aV5
aV5
aV3
aV5
aV5
aV5
aV1
aV3
aV5
aV4
aV4
aV3
aV3
aV5
aV4
aV5
aV1
aV4
aV5
aV5
aV3
aV4
aV3
aV5
aV5
aV5
aV5
aV4
aV3
aV4
aV5
aV4
aV5
aV4
aV5
aV5
aV4
aV5
aV3
aV5
aV5
aV3
aV2
aV1
aV1
aV5
aV5
aV4
aV4
aV1
aV4
aV4
aV1
aV3
aV1
aV5
aV4
aV3
aV4
aV4
aV3
aV1
aV5
aV5
aV3
aV4
aV1
aV5
aV1
aV5
aV2
aV4
aV2
aV4
aV5
aV4
aV2
aV5
aV4
aV5
aV3
aV5
aV5
aV5
aV3
aV5
aV3
aV4
aV4
aV4
aV3
aV5
aV4
aV1
aV5
aV2
aV1
aV5
aV5
aV5
aV4
aV2
aV1
aV3
aV5
aV5
aV4
aV1
aV5
aV2
aV4
aV1
aV5
aV5
aV5
aV3
aV4
aV5
aV5
aV5
aV4
aV4
aV5
aV3
aV5
aV1
aV2
aV5
aV5
aV5
aV5
aV4
aV1
aV4
aV5
aV3
aV5
aV5
aV4
aV3
aV5
aV3
aV1
aV5
aV3
aV5
aV1
aV4
aV2
aV2
aV4
aV5
aV5
aV4
aV5
aV4
aV3
aV5
aV4
aV5
aV2
aV2
aV3
aV5
aV3
aV1
aV3
aV3
aV3
aV3
aV5
aV4
aV3
aV1
aV1
aV4
aV1
aV5
aV5
aV5
aV5
aV5
aV2
aV5
aV2
aV3
aV5
aV5
aV2
aV5
aV3
aV3
aV3
aV5
aV3
aV1
aV3
aV5
aV4
aV4
aV3
aV5
aV5
aV5
aV3
aV2
aV5
aV5
aV5
aV3
aV4
aV4
aV5
aV3
aV5
aV5
aV5
aV3
aV3
aV5
aV4
aV3
aV5
aV5
aV5
aV4
aV5
aV3
aV3
aV3
aV3
aV3
aV1
aV4
aV5
aV3
aV3
aV5
aV1
aV4
aV3
aV4
aV3
aV1
aV5
aV3
aV5
aV4
aV2
aV3
aV1
aV5
aV3
aV3
aV3
aV1
aV4
aV1
aV5
aV3
aV4
aV4
aV5
aV4
aV1
aV2
aV3
aV5
aV2
aV4
aV4
aV5
aV4
aV4
aV1
aV3
aV5
aV3
aV1
aV2
aV5
aV4
aV2
aV1
aV4
aV1
aV1
aV5
aV5
aV2
aV2
aV1
aV4
aV3
aV5
aV4
aV4
aV5
aV4
aV3
aV1
aV4
aV5
aV4
aV3
aV2
aV5
aV5
aV4
aV5
aV4
aV4
aV5
aV5
aV3
aV1
aV1
aV5
aV3
aV4
aV5
aV1
aV3
aV4
aV4
aV5
aV3
aV4
aV3
aV3
aV5
aV5
aV5
aV3
aV3
aV1
aV5
aV4
aV3
aV4
aV4
aV5
aV4
aV2
aV5
aV5
aV5
aV3
aV5
aV1
aV3
aV1
aV1
aV4
aV5
aV4
aV4
aV3
aV4
aV3
aV4
aV2
aV1
aV1
aV5
aV5
aV4
aV5
aV5
aV4
aV2
aV4
aV5
aV2
aV2
aV4
aV5
aV5
aV5
aV5
aV3
aV5
aV1
aV5
aV1
aV3
aV2
aV3
aV4
aV3
aV4
aV5
aV4
aV5
aV1
aV4
aV4
aV5
aV3
aV5
aV4
aV4
aV4
aV5
aV5
aV3
aV3
aV3
aV5
aV3
aV3
aV4
aV5
aV5
aV4
aV5
aV3
aV5
aV3
aV2
aV3
aV4
aV1
aV3
aV3
aV4
aV3
aV1
aV5
aV5
aV1
aV3
aV1
aV5
aV5
aV1
aV4
aV4
aV5
aV1
aV5
aV5
aV3
aV4
aV1
aV1
aV5
aV4
aV1
aV2
aV3
aV3
aV4
aV2
aV1
aV5
aV3
aV5
aV1
aV4
aV4
aV4
aV5
aV1
aV3
aV2
aV4
aV4
aV5
aV5
aV2
aV1
aV5
aV5
aV1
aV1
aV4
aV4
aV4
aV2
aV1
aV5
aV2
aV5
aV4
aV5
aV5
aV3
aV5
aV1
aV5
aV5
aV5
aV3
aV5
aV3
aV5
aV5
aV3
aV4
aV5
aV5
aV5
aV4
aV2
aV3
aV5
aV3
aV5
aV5
aV1
aV4
aV4
aV4
aV5
aV3
aV5
aV5
aV5
aV5
aV4
aV4
aV3
aV5
aV4
aV2
aV2
aV3
aV4
aV5
aV5
aV4
aV2
aV5
aV5
aV5
aV4
aV5
aV4
aV5
aV4
aV1
aV5
aV5
aV4
aV4
aV3
aV1
aV2
aV4
aV2
aV1
aV2
aV5
aV5
aV5
aV5
aV5
aV1
aV4
aV4
aV5
aV2
aV4
aV5
aV5
aV5
aV3
aV5
aV3
aV5
aV3
aV4
aV1
aV3
aV5
aV4
aV4
aV3
aV4
aV5
aV4
aV4
aV1
aV4
aV5
aV5
aV3
aV5
aV4
aV4
aV5
aV5
aV5
aV4
aV3
aV4
aV5
aV3
aV4
aV5
aV5
aV5
aV4
aV5
aV3
aV3
aV3
aV3
aV4
aV4
aV1
aV5
aV4
aV5
aV4
aV1
aV5
aV5
aV1
aV2
aV1
aV5
aV4
aV3
aV4
aV4
aV4
aV1
aV5
aV4
aV3
aV4
aV1
aV5
aV5
aV4
aV2
aV4
aV4
aV3
aV5
aV3
aV2
aV5
aV4
aV5
aV2
aV4
aV5
aV4
aV5
aV3
aV3
aV1
aV4
aV2
aV5
aV5
aV2
aV1
aV5
aV2
aV1
aV4
aV5
aV5
aV3
aV2
aV1
aV3
aV3
aV5
aV3
aV2
aV5
aV2
aV4
aV1
aV4
aV5
aV3
aV3
aV3
aV5
aV5
aV2
aV3
aV3
aV3
aV3
aV5
aV3
aV2
aV3
aV3
aV3
aV4
aV4
aV1
aV3
aV2
aV2
aV4
aV3
aV4
aV3
aV5
aV2
aV2
aV4
aV3
aV2
aV4
aV3
aV3
aV2
aV3
aV3
aV4
aV3
aV3
aV1
aV4
aV3
aV3
aV4
aV5
aV2
aV1
aV1
aV3
aV5
aV3
aV4
aV3
aV2
aV5
aV4
aV2
aV1
aV1
aV4
aV2
aV3
aV4
aV3
aV4
aV1
aV2
aV5
aV2
aV3
aV3
aV4
aV2
aV4
aV4
aV3
aV2
aV3
aV4
aV1
aV3
aV4
aV2
aV4
aV3
aV4
aV5
aV3
aV3
aV2
aV4
aV5
aV3
aV3
aV3
aV2
aV5
aV4
aV4
aV3
aV1
aV3
aV4
aV3
aV3
aV1
aV3
aV3
aV5
aV4
aV5
aV3
aV2
aV5
aV2
aV3
aV4
aV2
aV5
aV2
aV3
aV3
aV1
aV2
aV2
aV4
aV3
aV1
aV5
aV4
aV5
aV4
aV2
aV5
aV1
aV3
aV3
aV3
aV2
aV1
aV1
aV1
aV3
aV2
aV4
aV1
aV2
aV4
aV1
aV3
aV3
aV2
aV3
aV4
aV3
aV2
aV4
aV3
aV1
aV3
aV5
aV3
aV3
aV3
aV4
aV3
aV2
aV1
aV4
aV1
aV4
aV3
aV2
aV4
aV2
aV1
aV3
aV3
aV5
aV3
aV2
aV4
aV2
aV5
aV1
aV4
aV4
aV5
aV3
aV5
aV5
aV5
aV5
aV4
aV4
aV3
aV4
aV3
aV3
aV3
aV4
aV3
aV2
aV4
aV4
aV1
aV2
aV4
aV5
aV4
aV3
aV3
aV5
aV3
aV4
aV2
aV3
aV3
aV5
aV3
aV2
aV1
aV3
aV3
aV3
aV3
aV3
aV4
aV5
aV3
aV3
aV4
aV4
aV4
aV4
aV3
aV5
aV4
aV5
aV3
aV4
aV3
aV3
aV4
aV4
aV3
aV1
aV1
aV4
aV4
aV3
aV5
aV3
aV5
aV3
aV4
aV5
aV2
aV3
aV3
aV5
aV3
aV1
aV4
aV3
aV3
aV2
aV4
aV2
aV3
aV4
aV4
aV4
aV3
aV3
aV5
aV3
aV4
aV1
aV4
aV4
aV5
aV3
aV4
aV1
aV5
aV4
aV4
aV5
aV4
aV3
aV4
aV5
aV3
aV4
aV5
aV4
aV5
aV4
aV5
aV3
aV2
aV5
aV3
aV4
aV3
aV4
aV3
aV4
aV3
aV4
aV1
aV3
aV2
aV4
aV2
aV1
aV5
aV3
aV5
aV4
aV2
aV2
aV1
aV5
aV4
aV3
aV3
aV1
aV3
aV1
aV5
aV1
aV4
aV1
aV4
aV3
aV1
aV3
aV3
aV4
aV4
aV2
aV4
aV4
aV5
aV4
aV1
aV4
aV5
aV2
aV3
aV5
aV5
aV5
aV2
aV3
aV4
aV2
aV4
aV5
aV5
aV4
aV1
aV1
aV3
aV5
aV5
aV3
aV4
aV4
aV4
aV4
aV1
aV4
aV4
aV4
aV3
aV5
aV5
aV3
aV4
aV4
aV4
aV2
aV5
aV5
aV4
aV4
aV3
aV5
aV3
aV4
aV5
aV1
aV4
aV3
aV4
aV5
aV3
aV4
aV1
aV5
aV4
aV4
aV4
aV4
aV3
aV2
aV5
aV3
aV3
aV3
aV4
aV5
aV3
aV4
aV5
aV4
aV2
aV3
aV2
aV5
aV4
aV3
aV3
aV4
aV4
aV4
aV5
aV3
aV3
aV5
aV1
aV3
aV3
aV2
aV5
aV4
aV4
aV3
aV4
aV5
aV4
aV4
aV4
aV2
aV4
aV5
aV5
aV3
aV5
aV5
aV4
aV3
aV3
aV4
aV4
aV1
aV3
aV4
aV5
aV1
aV3
aV5
aV4
aV4
aV5
aV5
aV4
aV4
aV3
aV4
aV2
aV1
aV5
aV5
aV5
aV4
aV4
aV4
aV5
aV4
aV4
aV3
aV5
aV5
aV5
aV5
aV5
aV4
aV5
aV3
aV3
aV1
aV5
aV3
aV3
aV4
aV4
aV3
aV4
aV4
aV5
aV3
aV2
aV5
aV4
aV2
aV4
aV3
aV4
aV4
aV5
aV4
aV3
aV4
aV1
aV3
aV1
aV4
aV3
aV3
aV4
aV3
aV4
aV3
aV4
aV5
aV4
aV4
aV4
aV2
aV4
aV4
aV5
aV5
aV5
aV5
aV4
aV5
aV5
aV4
aV4
aV5
aV3
atba(lp131
g14
(g15
(dp132
g17
g18
(g19
(I0
tS'b'
tRp133
(I1
(I34
tg22
I00
(lp134
g24
ag25
ag26
ag27
ag28
ag29
ag30
ag31
ag32
ag33
ag34
ag35
ag36
ag37
ag38
ag39
ag40
ag41
ag42
ag43
ag44
ag45
ag46
ag47
ag48
ag49
ag50
ag51
ag52
ag53
ag54
ag55
ag56
ag57
atbsg58
NstRp135
a(dp136
S'0.14.1'
p137
(dp138
S'axes'
p139
g13
sS'blocks'
p140
(lp141
(dp142
S'mgr_locs'
p143
c__builtin__
slice
p144
(I0
I34
I1
tRp145
sS'values'
p146
g66
sasstbsb.